; Function Attrs: nounwind uwtable
define i32 @Spl_ManLutFanouts(ptr noundef readonly captures(none) %0, i32 noundef %1, ptr noundef captures(none) initializes((4, 8)) %2, ptr noundef readonly captures(none) %3, ptr noundef readonly captures(none) %4) local_unnamed_addr #0 {
  %6 = getelementptr inbounds nuw i8, ptr %2, i64 4
  store i32 0, ptr %6, align 4, !tbaa !35
  %7 = getelementptr i8, ptr %0, i64 248
  %8 = sext i32 %1 to i64
  %.val2426 = load ptr, ptr %7, align 8, !tbaa !81
  %9 = getelementptr i8, ptr %.val2426, i64 8
  %.val24.val27 = load ptr, ptr %9, align 8, !tbaa !33
  %10 = getelementptr inbounds i32, ptr %.val24.val27, i64 %8
  %11 = load i32, ptr %10, align 4, !tbaa !34
  %12 = icmp sgt i32 %11, 0
  br i1 %12, label %.lr.ph, label %.critedge2

.lr.ph:                                           ; preds = %5
  %13 = getelementptr i8, ptr %0, i64 256
  br label %18

.critedge.preheader:                              ; preds = %18
  %.val2329.pre = load i32, ptr %6, align 4, !tbaa !35
  %14 = icmp sgt i32 %.val2329.pre, 0
  br i1 %14, label %.lr.ph31, label %.critedge2

.lr.ph31:                                         ; preds = %.critedge.preheader
  %15 = getelementptr i8, ptr %2, i64 8
  %.val = load ptr, ptr %15, align 8, !tbaa !33
  %16 = getelementptr inbounds nuw i8, ptr %4, i64 8
  %17 = load ptr, ptr %16, align 8, !tbaa !50
  br label %.critedge

18:                                               ; preds = %.lr.ph, %18
  %.028 = phi i32 [ 0, %.lr.ph ], [ %26, %18 ]
  %.val25 = load ptr, ptr %13, align 8, !tbaa !82
  %19 = getelementptr i8, ptr %.val25, i64 8
  %.val25.val = load ptr, ptr %19, align 8, !tbaa !33
  %20 = getelementptr inbounds i32, ptr %.val25.val, i64 %8
  %21 = load i32, ptr %20, align 4, !tbaa !34
  %22 = add nsw i32 %21, %.028
  %23 = sext i32 %22 to i64
  %24 = getelementptr inbounds i32, ptr %.val25.val, i64 %23
  %25 = load i32, ptr %24, align 4, !tbaa !34
  tail call void @Spl_ManLutFanouts_rec(ptr noundef nonnull %0, i32 noundef %25, ptr noundef %2, ptr noundef %3, ptr noundef %4)
  %26 = add nuw nsw i32 %.028, 1
  %.val24 = load ptr, ptr %7, align 8, !tbaa !81
  %27 = getelementptr i8, ptr %.val24, i64 8
  %.val24.val = load ptr, ptr %27, align 8, !tbaa !33
  %28 = getelementptr inbounds i32, ptr %.val24.val, i64 %8
  %29 = load i32, ptr %28, align 4, !tbaa !34
  %30 = icmp slt i32 %26, %29
  br i1 %30, label %18, label %.critedge.preheader, !llvm.loop !84

.critedge:                                        ; preds = %.lr.ph31, %.critedge
  %indvars.iv = phi i64 [ 0, %.lr.ph31 ], [ %indvars.iv.next, %.critedge ]
  %31 = getelementptr inbounds nuw i32, ptr %.val, i64 %indvars.iv
  %32 = load i32, ptr %31, align 4, !tbaa !34
  %33 = and i32 %32, 31
  %34 = shl nuw i32 1, %33
  %35 = xor i32 %34, -1
  %36 = ashr i32 %32, 5
  %37 = sext i32 %36 to i64
  %38 = getelementptr inbounds i32, ptr %17, i64 %37
  %39 = load i32, ptr %38, align 4, !tbaa !34
  %40 = and i32 %39, %35
  store i32 %40, ptr %38, align 4, !tbaa !34
  %indvars.iv.next = add nuw nsw i64 %indvars.iv, 1
  %.val23 = load i32, ptr %6, align 4, !tbaa !35
  %41 = sext i32 %.val23 to i64
  %42 = icmp slt i64 %indvars.iv.next, %41
  br i1 %42, label %.critedge, label %.critedge2, !llvm.loop !85

.critedge2:                                       ; preds = %.critedge, %5, %.critedge.preheader
  %.val23.lcssa = phi i32 [ %.val2329.pre, %.critedge.preheader ], [ 0, %5 ], [ %.val23, %.critedge ]
  ret i32 %.val23.lcssa
}